; Function Attrs: nounwind uwtable
define internal void @_ZThn16_N12_GLOBAL__N_138NonTemporalMemcpyTest_AVXEquality_TestD0Ev(ptr noundef %this) unnamed_addr #13 align 2 personality ptr @__gxx_personality_v0 {
entry:
  %0 = getelementptr inbounds i8, ptr %this, i64 -16
  store ptr getelementptr inbounds ({ [8 x ptr], [4 x ptr] }, ptr @_ZTVN12_GLOBAL__N_121NonTemporalMemcpyTestE, i64 0, i32 0, i64 2), ptr %0, align 8
  store ptr getelementptr inbounds ({ [8 x ptr], [4 x ptr] }, ptr @_ZTVN12_GLOBAL__N_121NonTemporalMemcpyTestE, i64 0, i32 1, i64 2), ptr %this, align 8
  %b_.i.i.i = getelementptr inbounds i8, ptr %this, i64 32
  %1 = load ptr, ptr %b_.i.i.i, align 8
  %tobool.not.i.i.i.i.i.i = icmp eq ptr %1, null
  br i1 %tobool.not.i.i.i.i.i.i, label %_ZNSt6vectorIhSaIhEED2Ev.exit.i.i.i, label %if.then.i.i.i.i.i.i

if.then.i.i.i.i.i.i:                              ; preds = %entry
  tail call void @_ZdlPv(ptr noundef nonnull %1) #30
  br label %_ZNSt6vectorIhSaIhEED2Ev.exit.i.i.i

_ZNSt6vectorIhSaIhEED2Ev.exit.i.i.i:              ; preds = %if.then.i.i.i.i.i.i, %entry
  %a_.i.i.i = getelementptr inbounds i8, ptr %this, i64 8
  %2 = load ptr, ptr %a_.i.i.i, align 8
  %tobool.not.i.i.i1.i.i.i = icmp eq ptr %2, null
  br i1 %tobool.not.i.i.i1.i.i.i, label %_ZN12_GLOBAL__N_138NonTemporalMemcpyTest_AVXEquality_TestD0Ev.exit, label %if.then.i.i.i2.i.i.i

if.then.i.i.i2.i.i.i:                             ; preds = %_ZNSt6vectorIhSaIhEED2Ev.exit.i.i.i
  tail call void @_ZdlPv(ptr noundef nonnull %2) #30
  br label %_ZN12_GLOBAL__N_138NonTemporalMemcpyTest_AVXEquality_TestD0Ev.exit

_ZN12_GLOBAL__N_138NonTemporalMemcpyTest_AVXEquality_TestD0Ev.exit: ; preds = %_ZNSt6vectorIhSaIhEED2Ev.exit.i.i.i, %if.then.i.i.i2.i.i.i
  tail call void @_ZN7testing4TestD2Ev(ptr noundef nonnull align 8 dereferenceable(16) %0) #27
  tail call void @_ZdlPv(ptr noundef nonnull %0) #30
  ret void
}